target datalayout = "e-m:e-p270:32:32-p271:32:32-p272:64:64-i64:64-i128:128-f80:128-n8:16:32:64-S128"
target triple = "x86_64-unknown-linux-gnu"

%"class.sat::literal" = type { i32 }
%"class.smt::clause" = type { i32, i32, [0 x %"class.sat::literal"] }
%class.ast = type { i32, i24, i32, i32 }

; Function Attrs: mustprogress nounwind uwtable
define linkonce_odr hidden noundef zeroext i1 @_ZN3smt8is_lemmaENS_11clause_kindE(i32 noundef %k) #4 comdat {
entry:
  %k.addr = alloca i32, align 4
  store i32 %k, ptr %k.addr, align 4
  %0 = load i32, ptr %k.addr, align 4
  %cmp = icmp eq i32 %0, 2
  br i1 %cmp, label %lor.end, label %lor.rhs

lor.rhs:                                          ; preds = %entry
  %1 = load i32, ptr %k.addr, align 4
  %cmp1 = icmp eq i32 %1, 3
  br label %lor.end

lor.end:                                          ; preds = %lor.rhs, %entry
  %2 = phi i1 [ true, %entry ], [ %cmp1, %lor.rhs ]
  ret i1 %2
}

; Function Attrs: mustprogress nounwind uwtable
define linkonce_odr hidden noundef i32 @_ZNK3smt6clause8get_kindEv(ptr noundef nonnull align 4 dereferenceable(8) %this) #4 comdat align 2 {
entry:
  %this.addr = alloca ptr, align 8
  store ptr %this, ptr %this.addr, align 8
  %this1 = load ptr, ptr %this.addr, align 8
  %m_kind = getelementptr inbounds %"class.smt::clause", ptr %this1, i32 0, i32 1
  %bf.load = load i32, ptr %m_kind, align 4
  %bf.lshr = lshr i32 %bf.load, 24
  %bf.clear = and i32 %bf.lshr, 3
  ret i32 %bf.clear
}

; Function Attrs: mustprogress uwtable
define linkonce_odr hidden noundef zeroext i1 @_ZNK3smt6clause8is_lemmaEv(ptr noundef nonnull align 4 dereferenceable(8) %this) #5 comdat align 2 {
entry:
  %this.addr = alloca ptr, align 8
  store ptr %this, ptr %this.addr, align 8
  %this1 = load ptr, ptr %this.addr, align 8
  %call = call noundef i32 @_ZNK3smt6clause8get_kindEv(ptr noundef nonnull align 4 dereferenceable(8) %this1)
  %call2 = call noundef zeroext i1 @_ZN3smt8is_lemmaENS_11clause_kindE(i32 noundef %call)
  ret i1 %call2
}

; Function Attrs: mustprogress nounwind uwtable
define linkonce_odr hidden noundef ptr @_ZNK3smt6clause17get_activity_addrEv(ptr noundef nonnull align 4 dereferenceable(8) %this) #4 comdat align 2 {
entry:
  %this.addr = alloca ptr, align 8
  store ptr %this, ptr %this.addr, align 8
  %this1 = load ptr, ptr %this.addr, align 8
  %m_lits = getelementptr inbounds %"class.smt::clause", ptr %this1, i32 0, i32 2
  %arraydecay = getelementptr inbounds [0 x %"class.sat::literal"], ptr %m_lits, i64 0, i64 0
  %m_capacity = getelementptr inbounds %"class.smt::clause", ptr %this1, i32 0, i32 1
  %bf.load = load i32, ptr %m_capacity, align 4
  %bf.clear = and i32 %bf.load, 16777215
  %idx.ext = sext i32 %bf.clear to i64
  %add.ptr = getelementptr inbounds %"class.sat::literal", ptr %arraydecay, i64 %idx.ext
  ret ptr %add.ptr
}

; Function Attrs: mustprogress uwtable
define linkonce_odr hidden noundef ptr @_ZNK3smt6clause15get_del_eh_addrEv(ptr noundef nonnull align 4 dereferenceable(8) %this) #5 comdat align 2 {
entry:
  %this.addr = alloca ptr, align 8
  %addr = alloca ptr, align 8
  %as_int = alloca i64, align 8
  store ptr %this, ptr %this.addr, align 8
  %this1 = load ptr, ptr %this.addr, align 8
  %call = call noundef ptr @_ZNK3smt6clause17get_activity_addrEv(ptr noundef nonnull align 4 dereferenceable(8) %this1)
  store ptr %call, ptr %addr, align 8
  %call2 = call noundef zeroext i1 @_ZNK3smt6clause8is_lemmaEv(ptr noundef nonnull align 4 dereferenceable(8) %this1)
  br i1 %call2, label %if.then, label %if.end

if.then:                                          ; preds = %entry
  %0 = load ptr, ptr %addr, align 8
  %incdec.ptr = getelementptr inbounds i32, ptr %0, i32 1
  store ptr %incdec.ptr, ptr %addr, align 8
  br label %if.end

if.end:                                           ; preds = %if.then, %entry
  %1 = load ptr, ptr %addr, align 8
  %2 = ptrtoint ptr %1 to i64
  store i64 %2, ptr %as_int, align 8
  %3 = load i64, ptr %as_int, align 8
  %add = add i64 %3, 8
  %sub = sub i64 %add, 1
  %and = and i64 %sub, -8
  store i64 %and, ptr %as_int, align 8
  %4 = load i64, ptr %as_int, align 8
  %5 = inttoptr i64 %4 to ptr
  ret ptr %5
}

; Function Attrs: mustprogress uwtable
define linkonce_odr hidden noundef ptr @_ZNK3smt6clause22get_justification_addrEv(ptr noundef nonnull align 4 dereferenceable(8) %this) #5 comdat align 2 {
entry:
  %this.addr = alloca ptr, align 8
  %addr = alloca ptr, align 8
  store ptr %this, ptr %this.addr, align 8
  %this1 = load ptr, ptr %this.addr, align 8
  %call = call noundef ptr @_ZNK3smt6clause15get_del_eh_addrEv(ptr noundef nonnull align 4 dereferenceable(8) %this1)
  store ptr %call, ptr %addr, align 8
  %m_has_del_eh = getelementptr inbounds %"class.smt::clause", ptr %this1, i32 0, i32 1
  %bf.load = load i32, ptr %m_has_del_eh, align 4
  %bf.lshr = lshr i32 %bf.load, 29
  %bf.clear = and i32 %bf.lshr, 1
  %tobool = icmp ne i32 %bf.clear, 0
  br i1 %tobool, label %if.then, label %if.end

if.then:                                          ; preds = %entry
  %0 = load ptr, ptr %addr, align 8
  %incdec.ptr = getelementptr inbounds ptr, ptr %0, i32 1
  store ptr %incdec.ptr, ptr %addr, align 8
  br label %if.end

if.end:                                           ; preds = %if.then, %entry
  %1 = load ptr, ptr %addr, align 8
  ret ptr %1
}

; Function Attrs: mustprogress nounwind uwtable
define linkonce_odr hidden noundef i32 @_ZNK3ast13get_ref_countEv(ptr noundef nonnull align 4 dereferenceable(16) %this) #4 comdat align 2 {
entry:
  %this.addr = alloca ptr, align 8
  store ptr %this, ptr %this.addr, align 8
  %this1 = load ptr, ptr %this.addr, align 8
  %m_ref_count = getelementptr inbounds %class.ast, ptr %this1, i32 0, i32 2
  %0 = load i32, ptr %m_ref_count, align 4
  ret i32 %0
}

; Function Attrs: mustprogress nounwind uwtable
define linkonce_odr hidden void @_ZN3ast7dec_refEv(ptr noundef nonnull align 4 dereferenceable(16) %this) #4 comdat align 2 {
entry:
  %this.addr = alloca ptr, align 8
  store ptr %this, ptr %this.addr, align 8
  %this1 = load ptr, ptr %this.addr, align 8
  %m_ref_count = getelementptr inbounds %class.ast, ptr %this1, i32 0, i32 2
  %0 = load i32, ptr %m_ref_count, align 4
  %dec = add i32 %0, -1
  store i32 %dec, ptr %m_ref_count, align 4
  ret void
}

; Function Attrs: mustprogress uwtable
define linkonce_odr hidden noundef ptr @_ZNK3smt6clause14get_atoms_addrEv(ptr noundef nonnull align 4 dereferenceable(8) %this) #5 comdat align 2 {
entry:
  %this.addr = alloca ptr, align 8
  %addr = alloca ptr, align 8
  store ptr %this, ptr %this.addr, align 8
  %this1 = load ptr, ptr %this.addr, align 8
  %call = call noundef ptr @_ZNK3smt6clause22get_justification_addrEv(ptr noundef nonnull align 4 dereferenceable(8) %this1)
  store ptr %call, ptr %addr, align 8
  %m_has_justification = getelementptr inbounds %"class.smt::clause", ptr %this1, i32 0, i32 1
  %bf.load = load i32, ptr %m_has_justification, align 4
  %bf.lshr = lshr i32 %bf.load, 30
  %bf.clear = and i32 %bf.lshr, 1
  %tobool = icmp ne i32 %bf.clear, 0
  br i1 %tobool, label %if.then, label %if.end

if.then:                                          ; preds = %entry
  %0 = load ptr, ptr %addr, align 8
  %incdec.ptr = getelementptr inbounds ptr, ptr %0, i32 1
  store ptr %incdec.ptr, ptr %addr, align 8
  br label %if.end

if.end:                                           ; preds = %if.then, %entry
  %1 = load ptr, ptr %addr, align 8
  ret ptr %1
}

; Function Attrs: mustprogress uwtable
define linkonce_odr hidden void @_ZN11ast_manager7dec_refEP3ast(ptr noundef nonnull align 8 dereferenceable(976) %this, ptr noundef %n) #5 comdat align 2 {
entry:
  %this.addr = alloca ptr, align 8
  %n.addr = alloca ptr, align 8
  store ptr %this, ptr %this.addr, align 8
  store ptr %n, ptr %n.addr, align 8
  %this1 = load ptr, ptr %this.addr, align 8
  %0 = load ptr, ptr %n.addr, align 8
  %tobool = icmp ne ptr %0, null
  br i1 %tobool, label %if.then, label %if.end3

if.then:                                          ; preds = %entry
  %1 = load ptr, ptr %n.addr, align 8
  call void @_ZN3ast7dec_refEv(ptr noundef nonnull align 4 dereferenceable(16) %1)
  %2 = load ptr, ptr %n.addr, align 8
  %call = call noundef i32 @_ZNK3ast13get_ref_countEv(ptr noundef nonnull align 4 dereferenceable(16) %2)
  %cmp = icmp eq i32 %call, 0
  br i1 %cmp, label %if.then2, label %if.end

if.then2:                                         ; preds = %if.then
  %3 = load ptr, ptr %n.addr, align 8
  call void @_ZN11ast_manager11delete_nodeEP3ast(ptr noundef nonnull align 8 dereferenceable(976) %this1, ptr noundef %3)
  br label %if.end

if.end:                                           ; preds = %if.then2, %if.then
  br label %if.end3

if.end3:                                          ; preds = %if.end, %entry
  ret void
}

; Function Attrs: mustprogress uwtable
define linkonce_odr hidden noundef ptr @_ZNK3smt6clause8get_atomEj(ptr noundef nonnull align 4 dereferenceable(8) %this, i32 noundef %idx) #5 comdat align 2 {
entry:
  %this.addr = alloca ptr, align 8
  %idx.addr = alloca i32, align 4
  store ptr %this, ptr %this.addr, align 8
  store i32 %idx, ptr %idx.addr, align 4
  %this1 = load ptr, ptr %this.addr, align 8
  %call = call noundef ptr @_ZNK3smt6clause14get_atoms_addrEv(ptr noundef nonnull align 4 dereferenceable(8) %this1)
  %0 = load i32, ptr %idx.addr, align 4
  %idxprom = zext i32 %0 to i64
  %arrayidx = getelementptr inbounds ptr, ptr %call, i64 %idxprom
  %1 = load ptr, ptr %arrayidx, align 8
  %2 = ptrtoint ptr %1 to i64
  %and = and i64 %2, -8
  %3 = inttoptr i64 %and to ptr
  ret ptr %3
}

; Function Attrs: mustprogress nounwind uwtable
define linkonce_odr hidden noundef i32 @_ZNK3smt6clause13get_num_atomsEv(ptr noundef nonnull align 4 dereferenceable(8) %this) #4 comdat align 2 {
entry:
  %this.addr = alloca ptr, align 8
  store ptr %this, ptr %this.addr, align 8
  %this1 = load ptr, ptr %this.addr, align 8
  %m_reinternalize_atoms = getelementptr inbounds %"class.smt::clause", ptr %this1, i32 0, i32 1
  %bf.load = load i32, ptr %m_reinternalize_atoms, align 4
  %bf.lshr = lshr i32 %bf.load, 27
  %bf.clear = and i32 %bf.lshr, 1
  %tobool = icmp ne i32 %bf.clear, 0
  br i1 %tobool, label %cond.true, label %cond.false

cond.true:                                        ; preds = %entry
  %m_num_literals = getelementptr inbounds %"class.smt::clause", ptr %this1, i32 0, i32 0
  %0 = load i32, ptr %m_num_literals, align 4
  br label %cond.end

cond.false:                                       ; preds = %entry
  br label %cond.end

cond.end:                                         ; preds = %cond.false, %cond.true
  %cond = phi i32 [ %0, %cond.true ], [ 0, %cond.false ]
  ret i32 %cond
}

; Function Attrs: mustprogress uwtable
define hidden void @_ZN3smt6clause13release_atomsER11ast_manager(ptr noundef nonnull align 4 dereferenceable(8) %this, ptr noundef nonnull align 8 dereferenceable(976) %m) #5 align 2 {
entry:
  %this.addr = alloca ptr, align 8
  %m.addr = alloca ptr, align 8
  %num_atoms = alloca i32, align 4
  %i = alloca i32, align 4
  store ptr %this, ptr %this.addr, align 8
  store ptr %m, ptr %m.addr, align 8
  %this1 = load ptr, ptr %this.addr, align 8
  %call = call noundef i32 @_ZNK3smt6clause13get_num_atomsEv(ptr noundef nonnull align 4 dereferenceable(8) %this1)
  store i32 %call, ptr %num_atoms, align 4
  store i32 0, ptr %i, align 4
  br label %for.cond

for.cond:                                         ; preds = %for.inc, %entry
  %0 = load i32, ptr %i, align 4
  %1 = load i32, ptr %num_atoms, align 4
  %cmp = icmp ult i32 %0, %1
  br i1 %cmp, label %for.body, label %for.end

for.body:                                         ; preds = %for.cond
  %2 = load ptr, ptr %m.addr, align 8
  %3 = load i32, ptr %i, align 4
  %call2 = call noundef ptr @_ZNK3smt6clause8get_atomEj(ptr noundef nonnull align 4 dereferenceable(8) %this1, i32 noundef %3)
  call void @_ZN11ast_manager7dec_refEP3ast(ptr noundef nonnull align 8 dereferenceable(976) %2, ptr noundef %call2)
  %call3 = call noundef ptr @_ZNK3smt6clause14get_atoms_addrEv(ptr noundef nonnull align 4 dereferenceable(8) %this1)
  %4 = load i32, ptr %i, align 4
  %idxprom = zext i32 %4 to i64
  %arrayidx = getelementptr inbounds ptr, ptr %call3, i64 %idxprom
  store ptr null, ptr %arrayidx, align 8
  br label %for.inc

for.inc:                                          ; preds = %for.body
  %5 = load i32, ptr %i, align 4
  %inc = add i32 %5, 1
  store i32 %inc, ptr %i, align 4
  br label %for.cond, !llvm.loop !7

for.end:                                          ; preds = %for.cond
  ret void
}