; Function Attrs: mustprogress uwtable
define hidden void @_ZN3smt6clause13release_atomsER11ast_manager(ptr noundef nonnull align 4 dereferenceable(8) %this, ptr noundef nonnull align 8 dereferenceable(976) %m) local_unnamed_addr #3 align 2 {
entry:
  %m_reinternalize_atoms.i = getelementptr inbounds i8, ptr %this, i64 4
  %bf.load.i = load i32, ptr %m_reinternalize_atoms.i, align 4
  %bf.load.i.fr = freeze i32 %bf.load.i
  %0 = and i32 %bf.load.i.fr, 134217728
  %tobool.not.i = icmp ne i32 %0, 0
  %1 = load i32, ptr %this, align 4
  %cmp1011 = icmp ne i32 %1, 0
  %cmp12 = select i1 %tobool.not.i, i1 %cmp1011, i1 false
  br i1 %cmp12, label %for.body.preheader, label %for.end

for.body.preheader:                               ; preds = %entry
  %m_lits.i.i.i.i.i = getelementptr inbounds i8, ptr %this, i64 8
  %wide.trip.count = zext i32 %1 to i64
  br label %for.body

for.body:                                         ; preds = %for.body.preheader, %_ZN11ast_manager7dec_refEP3ast.exit
  %indvars.iv = phi i64 [ 0, %for.body.preheader ], [ %indvars.iv.next, %_ZN11ast_manager7dec_refEP3ast.exit ]
  %bf.load.i.i.i.i.i = load i32, ptr %m_reinternalize_atoms.i, align 4
  %bf.clear.i.i.i.i.i = and i32 %bf.load.i.i.i.i.i, 16777215
  %idx.ext.i.i.i.i.i = zext nneg i32 %bf.clear.i.i.i.i.i to i64
  %add.ptr.i.i.i.i.i = getelementptr inbounds %"class.sat::literal", ptr %m_lits.i.i.i.i.i, i64 %idx.ext.i.i.i.i.i
  %2 = lshr i32 %bf.load.i.i.i.i.i, 23
  %3 = and i32 %2, 4
  %spec.select.idx.i.i.i.i = zext nneg i32 %3 to i64
  %spec.select.i.i.i.i = getelementptr inbounds i8, ptr %add.ptr.i.i.i.i.i, i64 %spec.select.idx.i.i.i.i
  %4 = ptrtoint ptr %spec.select.i.i.i.i to i64
  %sub.i.i.i.i = add i64 %4, 7
  %and.i.i.i.i = and i64 %sub.i.i.i.i, -8
  %5 = inttoptr i64 %and.i.i.i.i to ptr
  %6 = lshr i32 %bf.load.i.i.i.i.i, 26
  %7 = and i32 %6, 8
  %spec.select.idx.i.i.i = zext nneg i32 %7 to i64
  %spec.select.i.i.i = getelementptr inbounds i8, ptr %5, i64 %spec.select.idx.i.i.i
  %8 = lshr i32 %bf.load.i.i.i.i.i, 27
  %9 = and i32 %8, 8
  %spec.select.idx.i.i = zext nneg i32 %9 to i64
  %spec.select.i.i = getelementptr inbounds i8, ptr %spec.select.i.i.i, i64 %spec.select.idx.i.i
  %arrayidx.i = getelementptr inbounds ptr, ptr %spec.select.i.i, i64 %indvars.iv
  %10 = load ptr, ptr %arrayidx.i, align 8
  %11 = ptrtoint ptr %10 to i64
  %and.i = and i64 %11, -8
  %12 = inttoptr i64 %and.i to ptr
  %tobool.not.i4 = icmp eq i64 %and.i, 0
  br i1 %tobool.not.i4, label %_ZN11ast_manager7dec_refEP3ast.exit, label %if.then.i

if.then.i:                                        ; preds = %for.body
  %m_ref_count.i.i = getelementptr inbounds i8, ptr %12, i64 8
  %13 = load i32, ptr %m_ref_count.i.i, align 8
  %dec.i.i = add i32 %13, -1
  store i32 %dec.i.i, ptr %m_ref_count.i.i, align 8
  %cmp.i = icmp eq i32 %dec.i.i, 0
  br i1 %cmp.i, label %if.then2.i, label %_ZN11ast_manager7dec_refEP3ast.exit

if.then2.i:                                       ; preds = %if.then.i
  tail call void @_ZN11ast_manager11delete_nodeEP3ast(ptr noundef nonnull align 8 dereferenceable(976) %m, ptr noundef nonnull %12)
  br label %_ZN11ast_manager7dec_refEP3ast.exit

_ZN11ast_manager7dec_refEP3ast.exit:              ; preds = %for.body, %if.then.i, %if.then2.i
  %bf.load.i.i.i.i = load i32, ptr %m_reinternalize_atoms.i, align 4
  %bf.clear.i.i.i.i = and i32 %bf.load.i.i.i.i, 16777215
  %idx.ext.i.i.i.i = zext nneg i32 %bf.clear.i.i.i.i to i64
  %add.ptr.i.i.i.i = getelementptr inbounds %"class.sat::literal", ptr %m_lits.i.i.i.i.i, i64 %idx.ext.i.i.i.i
  %14 = lshr i32 %bf.load.i.i.i.i, 23
  %15 = and i32 %14, 4
  %spec.select.idx.i.i.i5 = zext nneg i32 %15 to i64
  %spec.select.i.i.i6 = getelementptr inbounds i8, ptr %add.ptr.i.i.i.i, i64 %spec.select.idx.i.i.i5
  %16 = ptrtoint ptr %spec.select.i.i.i6 to i64
  %sub.i.i.i = add i64 %16, 7
  %and.i.i.i = and i64 %sub.i.i.i, -8
  %17 = inttoptr i64 %and.i.i.i to ptr
  %18 = lshr i32 %bf.load.i.i.i.i, 26
  %19 = and i32 %18, 8
  %spec.select.idx.i.i7 = zext nneg i32 %19 to i64
  %spec.select.i.i8 = getelementptr inbounds i8, ptr %17, i64 %spec.select.idx.i.i7
  %20 = lshr i32 %bf.load.i.i.i.i, 27
  %21 = and i32 %20, 8
  %spec.select.idx.i = zext nneg i32 %21 to i64
  %spec.select.i9 = getelementptr inbounds i8, ptr %spec.select.i.i8, i64 %spec.select.idx.i
  %arrayidx = getelementptr inbounds ptr, ptr %spec.select.i9, i64 %indvars.iv
  store ptr null, ptr %arrayidx, align 8
  %indvars.iv.next = add nuw nsw i64 %indvars.iv, 1
  %exitcond.not = icmp eq i64 %indvars.iv.next, %wide.trip.count
  br i1 %exitcond.not, label %for.end, label %for.body, !llvm.loop !7

for.end:                                          ; preds = %_ZN11ast_manager7dec_refEP3ast.exit, %entry
  ret void
}